target datalayout = "e-m:e-p270:32:32-p271:32:32-p272:64:64-i64:64-i128:128-f80:128-n8:16:32:64-S128"
target triple = "x86_64-pc-linux-gnu"

%struct.proxy_hwm_cfg_t = type { ptr, i32, [4 x ptr], [4 x ptr], ptr }

@.str.4 = private unnamed_addr constant [10 x i8] c"TERMINATE\00", align 1

; Function Attrs: mustprogress uwtable
define dso_local void @_Z15terminate_proxyPK15proxy_hwm_cfg_t(ptr noundef %0) #0 {
  %2 = alloca ptr, align 8
  %3 = alloca ptr, align 8
  %4 = alloca i32, align 4
  store ptr %0, ptr %2, align 8, !tbaa !12
  call void @llvm.lifetime.start.p0(i64 8, ptr %3) #9
  %5 = load ptr, ptr %2, align 8, !tbaa !12
  %6 = getelementptr inbounds nuw %struct.proxy_hwm_cfg_t, ptr %5, i32 0, i32 0
  %7 = load ptr, ptr %6, align 8, !tbaa !13
  %8 = call ptr @zmq_socket(ptr noundef %7, i32 noundef 3)
  store ptr %8, ptr %3, align 8, !tbaa !12
  call void @llvm.lifetime.start.p0(i64 4, ptr %4) #9
  %9 = load ptr, ptr %3, align 8, !tbaa !12
  %10 = load ptr, ptr %2, align 8, !tbaa !12
  %11 = getelementptr inbounds nuw %struct.proxy_hwm_cfg_t, ptr %10, i32 0, i32 4
  %12 = load ptr, ptr %11, align 8, !tbaa !15
  %13 = call i32 @zmq_connect(ptr noundef %9, ptr noundef %12)
  store i32 %13, ptr %4, align 4, !tbaa !4
  br label %14

14:                                               ; preds = %1
  br label %15

15:                                               ; preds = %14
  br label %16

16:                                               ; preds = %15
  %17 = load ptr, ptr %3, align 8, !tbaa !12
  %18 = call i32 @zmq_send(ptr noundef %17, ptr noundef @.str.4, i64 noundef 9, i32 noundef 0)
  store i32 %18, ptr %4, align 4, !tbaa !4
  br label %19

19:                                               ; preds = %16
  br label %20

20:                                               ; preds = %19
  br label %21

21:                                               ; preds = %20
  %22 = load ptr, ptr %3, align 8, !tbaa !12
  %23 = call i32 @zmq_close(ptr noundef %22)
  call void @llvm.lifetime.end.p0(i64 4, ptr %4) #9
  call void @llvm.lifetime.end.p0(i64 8, ptr %3) #9
  ret void
}