; Function Attrs: mustprogress uwtable
define dso_local void @_Z15terminate_proxyPK15proxy_hwm_cfg_t(ptr noundef readonly captures(none) %0) local_unnamed_addr #0 {
  %2 = load ptr, ptr %0, align 8, !tbaa !4
  %3 = tail call ptr @zmq_socket(ptr noundef %2, i32 noundef 3)
  %4 = getelementptr inbounds nuw i8, ptr %0, i64 80
  %5 = load ptr, ptr %4, align 8, !tbaa !11
  %6 = tail call i32 @zmq_connect(ptr noundef %3, ptr noundef %5)
  %7 = tail call i32 @zmq_send(ptr noundef %3, ptr noundef nonnull @.str.4, i64 noundef 9, i32 noundef 0)
  %8 = tail call i32 @zmq_close(ptr noundef %3)
  ret void
}